target datalayout = "e-m:e-p270:32:32-p271:32:32-p272:64:64-i64:64-i128:128-f80:128-n8:16:32:64-S128"
target triple = "x86_64-pc-linux-gnu"

%struct.AggState = type { %struct.ScanState, ptr, i32, i32, i32, i32, ptr, i32, i32, ptr, ptr, ptr, ptr, ptr, ptr, ptr, ptr, i8, i8, i32, i32, ptr, ptr, ptr, i32, i8, i32, ptr, ptr, ptr, ptr, ptr, ptr, i8, i32, ptr, ptr, ptr, ptr, ptr, ptr, i8, i8, i64, i64, i32, double, i64, i64, i64, i32, ptr, ptr, ptr, ptr }
%struct.ScanState = type { %struct.PlanState, ptr, ptr, ptr }
%struct.PlanState = type { i32, ptr, ptr, ptr, ptr, ptr, ptr, ptr, ptr, ptr, ptr, ptr, ptr, ptr, ptr, ptr, ptr, ptr, i8, ptr, ptr, ptr, ptr, ptr, i8, i8, i8, i8, i8, i8, i8, i8 }
%struct.ExprContext = type { i32, ptr, ptr, ptr, ptr, ptr, ptr, ptr, ptr, ptr, i64, i8, i64, i8, ptr, ptr, ptr, ptr }
%struct.HashAggSpill = type { i32, ptr, ptr, i32, i32, ptr }

; Function Attrs: nounwind uwtable
define internal void @hash_agg_update_metrics(ptr noundef %0, i1 noundef zeroext %1, i32 noundef %2) #0 {
  %4 = alloca ptr, align 8
  %5 = alloca i8, align 1
  %6 = alloca i32, align 4
  %7 = alloca i64, align 8
  %8 = alloca i64, align 8
  %9 = alloca i64, align 8
  %10 = alloca i64, align 8
  %11 = alloca i32, align 4
  %12 = alloca i64, align 8
  store ptr %0, ptr %4, align 8
  %13 = zext i1 %1 to i8
  store i8 %13, ptr %5, align 1
  store i32 %2, ptr %6, align 4
  call void @llvm.lifetime.start.p0(i64 8, ptr %7) #9
  call void @llvm.lifetime.start.p0(i64 8, ptr %8) #9
  call void @llvm.lifetime.start.p0(i64 8, ptr %9) #9
  call void @llvm.lifetime.start.p0(i64 8, ptr %10) #9
  %14 = load ptr, ptr %4, align 8
  %15 = getelementptr inbounds nuw %struct.AggState, ptr %14, i32 0, i32 4
  %16 = load i32, ptr %15, align 8
  %17 = icmp ne i32 %16, 3
  br i1 %17, label %18, label %24

18:                                               ; preds = %3
  %19 = load ptr, ptr %4, align 8
  %20 = getelementptr inbounds nuw %struct.AggState, ptr %19, i32 0, i32 4
  %21 = load i32, ptr %20, align 8
  %22 = icmp ne i32 %21, 2
  br i1 %22, label %23, label %24

23:                                               ; preds = %18
  store i32 1, ptr %11, align 4
  br label %96

24:                                               ; preds = %18, %3
  %25 = load ptr, ptr %4, align 8
  %26 = getelementptr inbounds nuw %struct.AggState, ptr %25, i32 0, i32 35
  %27 = load ptr, ptr %26, align 8
  %28 = call i64 @MemoryContextMemAllocated(ptr noundef %27, i1 noundef zeroext true)
  store i64 %28, ptr %7, align 8
  %29 = load ptr, ptr %4, align 8
  %30 = getelementptr inbounds nuw %struct.AggState, ptr %29, i32 0, i32 11
  %31 = load ptr, ptr %30, align 8
  %32 = getelementptr inbounds nuw %struct.ExprContext, ptr %31, i32 0, i32 5
  %33 = load ptr, ptr %32, align 8
  %34 = call i64 @MemoryContextMemAllocated(ptr noundef %33, i1 noundef zeroext true)
  store i64 %34, ptr %8, align 8
  %35 = load i32, ptr %6, align 4
  %36 = mul i32 %35, 8192
  %37 = sext i32 %36 to i64
  store i64 %37, ptr %9, align 8
  %38 = load i8, ptr %5, align 1, !range !4, !noundef !5
  %39 = trunc i8 %38 to i1
  br i1 %39, label %40, label %43

40:                                               ; preds = %24
  %41 = load i64, ptr %9, align 8
  %42 = add i64 %41, 8192
  store i64 %42, ptr %9, align 8
  br label %43

43:                                               ; preds = %40, %24
  %44 = load i64, ptr %7, align 8
  %45 = load i64, ptr %8, align 8
  %46 = add i64 %44, %45
  %47 = load i64, ptr %9, align 8
  %48 = add i64 %46, %47
  store i64 %48, ptr %10, align 8
  %49 = load i64, ptr %10, align 8
  %50 = load ptr, ptr %4, align 8
  %51 = getelementptr inbounds nuw %struct.AggState, ptr %50, i32 0, i32 47
  %52 = load i64, ptr %51, align 8
  %53 = icmp ugt i64 %49, %52
  br i1 %53, label %54, label %58

54:                                               ; preds = %43
  %55 = load i64, ptr %10, align 8
  %56 = load ptr, ptr %4, align 8
  %57 = getelementptr inbounds nuw %struct.AggState, ptr %56, i32 0, i32 47
  store i64 %55, ptr %57, align 8
  br label %58

58:                                               ; preds = %54, %43
  %59 = load ptr, ptr %4, align 8
  %60 = getelementptr inbounds nuw %struct.AggState, ptr %59, i32 0, i32 36
  %61 = load ptr, ptr %60, align 8
  %62 = icmp ne ptr %61, null
  br i1 %62, label %63, label %79

63:                                               ; preds = %58
  call void @llvm.lifetime.start.p0(i64 8, ptr %12) #9
  %64 = load ptr, ptr %4, align 8
  %65 = getelementptr inbounds nuw %struct.AggState, ptr %64, i32 0, i32 36
  %66 = load ptr, ptr %65, align 8
  %67 = call i64 @LogicalTapeSetBlocks(ptr noundef %66)
  %68 = mul i64 %67, 8
  store i64 %68, ptr %12, align 8
  %69 = load ptr, ptr %4, align 8
  %70 = getelementptr inbounds nuw %struct.AggState, ptr %69, i32 0, i32 49
  %71 = load i64, ptr %70, align 8
  %72 = load i64, ptr %12, align 8
  %73 = icmp ult i64 %71, %72
  br i1 %73, label %74, label %78

74:                                               ; preds = %63
  %75 = load i64, ptr %12, align 8
  %76 = load ptr, ptr %4, align 8
  %77 = getelementptr inbounds nuw %struct.AggState, ptr %76, i32 0, i32 49
  store i64 %75, ptr %77, align 8
  br label %78

78:                                               ; preds = %74, %63
  call void @llvm.lifetime.end.p0(i64 8, ptr %12) #9
  br label %79

79:                                               ; preds = %78, %58
  %80 = load ptr, ptr %4, align 8
  %81 = getelementptr inbounds nuw %struct.AggState, ptr %80, i32 0, i32 48
  %82 = load i64, ptr %81, align 8
  %83 = icmp ugt i64 %82, 0
  br i1 %83, label %84, label %95

84:                                               ; preds = %79
  %85 = load i64, ptr %8, align 8
  %86 = uitofp i64 %85 to double
  %87 = load ptr, ptr %4, align 8
  %88 = getelementptr inbounds nuw %struct.AggState, ptr %87, i32 0, i32 48
  %89 = load i64, ptr %88, align 8
  %90 = uitofp i64 %89 to double
  %91 = fdiv double %86, %90
  %92 = fadd double 2.400000e+01, %91
  %93 = load ptr, ptr %4, align 8
  %94 = getelementptr inbounds nuw %struct.AggState, ptr %93, i32 0, i32 46
  store double %92, ptr %94, align 8
  br label %95

95:                                               ; preds = %84, %79
  store i32 0, ptr %11, align 4
  br label %96

96:                                               ; preds = %95, %23
  call void @llvm.lifetime.end.p0(i64 8, ptr %10) #9
  call void @llvm.lifetime.end.p0(i64 8, ptr %9) #9
  call void @llvm.lifetime.end.p0(i64 8, ptr %8) #9
  call void @llvm.lifetime.end.p0(i64 8, ptr %7) #9
  %97 = load i32, ptr %11, align 4
  switch i32 %97, label %99 [
    i32 0, label %98
    i32 1, label %98
  ]

98:                                               ; preds = %96, %96
  ret void

99:                                               ; preds = %96
  unreachable
}

; Function Attrs: nounwind uwtable
define internal void @hashagg_finish_initial_spills(ptr noundef %0) #0 {
  %2 = alloca ptr, align 8
  %3 = alloca i32, align 4
  %4 = alloca i32, align 4
  %5 = alloca ptr, align 8
  store ptr %0, ptr %2, align 8
  call void @llvm.lifetime.start.p0(i64 4, ptr %3) #9
  call void @llvm.lifetime.start.p0(i64 4, ptr %4) #9
  store i32 0, ptr %4, align 4
  %6 = load ptr, ptr %2, align 8
  %7 = getelementptr inbounds nuw %struct.AggState, ptr %6, i32 0, i32 37
  %8 = load ptr, ptr %7, align 8
  %9 = icmp ne ptr %8, null
  br i1 %9, label %10, label %41

10:                                               ; preds = %1
  store i32 0, ptr %3, align 4
  br label %11

11:                                               ; preds = %32, %10
  %12 = load i32, ptr %3, align 4
  %13 = load ptr, ptr %2, align 8
  %14 = getelementptr inbounds nuw %struct.AggState, ptr %13, i32 0, i32 34
  %15 = load i32, ptr %14, align 4
  %16 = icmp slt i32 %12, %15
  br i1 %16, label %17, label %35

17:                                               ; preds = %11
  call void @llvm.lifetime.start.p0(i64 8, ptr %5) #9
  %18 = load ptr, ptr %2, align 8
  %19 = getelementptr inbounds nuw %struct.AggState, ptr %18, i32 0, i32 37
  %20 = load ptr, ptr %19, align 8
  %21 = load i32, ptr %3, align 4
  %22 = sext i32 %21 to i64
  %23 = getelementptr inbounds %struct.HashAggSpill, ptr %20, i64 %22
  store ptr %23, ptr %5, align 8
  %24 = load ptr, ptr %5, align 8
  %25 = getelementptr inbounds nuw %struct.HashAggSpill, ptr %24, i32 0, i32 0
  %26 = load i32, ptr %25, align 8
  %27 = load i32, ptr %4, align 4
  %28 = add i32 %27, %26
  store i32 %28, ptr %4, align 4
  %29 = load ptr, ptr %2, align 8
  %30 = load ptr, ptr %5, align 8
  %31 = load i32, ptr %3, align 4
  call void @hashagg_spill_finish(ptr noundef %29, ptr noundef %30, i32 noundef %31)
  call void @llvm.lifetime.end.p0(i64 8, ptr %5) #9
  br label %32

32:                                               ; preds = %17
  %33 = load i32, ptr %3, align 4
  %34 = add i32 %33, 1
  store i32 %34, ptr %3, align 4
  br label %11, !llvm.loop !46

35:                                               ; preds = %11
  %36 = load ptr, ptr %2, align 8
  %37 = getelementptr inbounds nuw %struct.AggState, ptr %36, i32 0, i32 37
  %38 = load ptr, ptr %37, align 8
  call void @pfree(ptr noundef %38)
  %39 = load ptr, ptr %2, align 8
  %40 = getelementptr inbounds nuw %struct.AggState, ptr %39, i32 0, i32 37
  store ptr null, ptr %40, align 8
  br label %41

41:                                               ; preds = %35, %1
  %42 = load ptr, ptr %2, align 8
  %43 = load i32, ptr %4, align 4
  call void @hash_agg_update_metrics(ptr noundef %42, i1 noundef zeroext false, i32 noundef %43)
  %44 = load ptr, ptr %2, align 8
  %45 = getelementptr inbounds nuw %struct.AggState, ptr %44, i32 0, i32 42
  store i8 0, ptr %45, align 1
  call void @llvm.lifetime.end.p0(i64 4, ptr %4) #9
  call void @llvm.lifetime.end.p0(i64 4, ptr %3) #9
  ret void
}