; Function Attrs: nounwind uwtable
define internal fastcc void @hashagg_finish_initial_spills(ptr noundef captures(none) %0) unnamed_addr #2 {
  %2 = getelementptr inbounds nuw i8, ptr %0, i64 456
  %3 = load ptr, ptr %2, align 8
  %.not = icmp eq ptr %3, null
  br i1 %.not, label %18, label %.preheader

.preheader:                                       ; preds = %1
  %4 = getelementptr inbounds nuw i8, ptr %0, i64 436
  %5 = load i32, ptr %4, align 4
  %6 = icmp sgt i32 %5, 0
  br i1 %6, label %.lr.ph, label %._crit_edge

.lr.ph:                                           ; preds = %.preheader, %.lr.ph
  %indvars.iv = phi i64 [ %indvars.iv.next, %.lr.ph ], [ 0, %.preheader ]
  %.116 = phi i32 [ %10, %.lr.ph ], [ 0, %.preheader ]
  %7 = load ptr, ptr %2, align 8
  %8 = getelementptr inbounds nuw %struct.HashAggSpill, ptr %7, i64 %indvars.iv
  %9 = load i32, ptr %8, align 8
  %10 = add i32 %9, %.116
  %11 = trunc nuw nsw i64 %indvars.iv to i32
  tail call fastcc void @hashagg_spill_finish(ptr noundef nonnull %0, ptr noundef nonnull %8, i32 noundef %11)
  %indvars.iv.next = add nuw nsw i64 %indvars.iv, 1
  %12 = load i32, ptr %4, align 4
  %13 = sext i32 %12 to i64
  %14 = icmp slt i64 %indvars.iv.next, %13
  br i1 %14, label %.lr.ph, label %._crit_edge.loopexit, !llvm.loop !43

._crit_edge.loopexit:                             ; preds = %.lr.ph
  %.pre = load ptr, ptr %2, align 8
  %15 = shl i32 %10, 13
  %16 = sext i32 %15 to i64
  br label %._crit_edge

._crit_edge:                                      ; preds = %._crit_edge.loopexit, %.preheader
  %17 = phi ptr [ %3, %.preheader ], [ %.pre, %._crit_edge.loopexit ]
  %.1.lcssa = phi i64 [ 0, %.preheader ], [ %16, %._crit_edge.loopexit ]
  tail call void @pfree(ptr noundef %17) #12
  store ptr null, ptr %2, align 8
  br label %18

18:                                               ; preds = %._crit_edge, %1
  %.015 = phi i64 [ %.1.lcssa, %._crit_edge ], [ 0, %1 ]
  %19 = getelementptr inbounds nuw i8, ptr %0, i64 240
  %20 = load i32, ptr %19, align 8
  %21 = and i32 %20, -2
  %switch.i = icmp eq i32 %21, 2
  br i1 %switch.i, label %22, label %hash_agg_update_metrics.exit

22:                                               ; preds = %18
  %23 = getelementptr inbounds nuw i8, ptr %0, i64 440
  %24 = load ptr, ptr %23, align 8
  %25 = tail call i64 @MemoryContextMemAllocated(ptr noundef %24, i1 noundef zeroext true) #12
  %26 = getelementptr inbounds nuw i8, ptr %0, i64 280
  %27 = load ptr, ptr %26, align 8
  %28 = getelementptr inbounds nuw i8, ptr %27, i64 40
  %29 = load ptr, ptr %28, align 8
  %30 = tail call i64 @MemoryContextMemAllocated(ptr noundef %29, i1 noundef zeroext true) #12
  %31 = add i64 %25, %.015
  %32 = add i64 %31, %30
  %33 = getelementptr inbounds nuw i8, ptr %0, i64 528
  %34 = load i64, ptr %33, align 8
  %35 = icmp ugt i64 %32, %34
  br i1 %35, label %36, label %37

36:                                               ; preds = %22
  store i64 %32, ptr %33, align 8
  br label %37

37:                                               ; preds = %36, %22
  %38 = getelementptr inbounds nuw i8, ptr %0, i64 448
  %39 = load ptr, ptr %38, align 8
  %.not29.i = icmp eq ptr %39, null
  br i1 %.not29.i, label %47, label %40

40:                                               ; preds = %37
  %41 = tail call i64 @LogicalTapeSetBlocks(ptr noundef nonnull %39) #12
  %42 = shl i64 %41, 3
  %43 = getelementptr inbounds nuw i8, ptr %0, i64 544
  %44 = load i64, ptr %43, align 8
  %45 = icmp ult i64 %44, %42
  br i1 %45, label %46, label %47

46:                                               ; preds = %40
  store i64 %42, ptr %43, align 8
  br label %47

47:                                               ; preds = %46, %40, %37
  %48 = getelementptr inbounds nuw i8, ptr %0, i64 536
  %49 = load i64, ptr %48, align 8
  %.not30.i = icmp eq i64 %49, 0
  br i1 %.not30.i, label %hash_agg_update_metrics.exit, label %50

50:                                               ; preds = %47
  %51 = uitofp i64 %30 to double
  %52 = uitofp i64 %49 to double
  %53 = fdiv double %51, %52
  %54 = fadd double %53, 2.400000e+01
  %55 = getelementptr inbounds nuw i8, ptr %0, i64 520
  store double %54, ptr %55, align 8
  br label %hash_agg_update_metrics.exit

hash_agg_update_metrics.exit:                     ; preds = %18, %47, %50
  %56 = getelementptr inbounds nuw i8, ptr %0, i64 489
  store i8 0, ptr %56, align 1
  ret void
}